; Function Attrs: mustprogress nofree nounwind sspstrong willreturn uwtable
define internal double @loop_get_real(ptr noundef captures(none) %0, i32 %1) #5 {
  %3 = getelementptr inbounds nuw i8, ptr %0, i64 12
  %4 = load i32, ptr %3, align 4, !tbaa !21
  %5 = getelementptr inbounds nuw i8, ptr %0, i64 8
  %6 = load i32, ptr %5, align 8, !tbaa !20
  %7 = icmp ult i32 %4, %6
  br i1 %7, label %8, label %15

8:                                                ; preds = %2
  %9 = getelementptr inbounds nuw i8, ptr %0, i64 16
  %10 = load ptr, ptr %9, align 8, !tbaa !15
  %11 = add nuw i32 %4, 1
  store i32 %11, ptr %3, align 4, !tbaa !21
  %12 = zext i32 %4 to i64
  %13 = getelementptr inbounds nuw i32, ptr %10, i64 %12
  %14 = load i32, ptr %13, align 4, !tbaa !22
  %.not14.i = icmp ult i32 %11, %6
  %spec.store.select.i = select i1 %.not14.i, i32 %11, i32 0
  store i32 %spec.store.select.i, ptr %3, align 4
  br label %loop_get_int32.exit

15:                                               ; preds = %2
  %.not.i = icmp eq i32 %6, 0
  br i1 %.not.i, label %loop_get_int32.exit, label %16

16:                                               ; preds = %15
  %17 = getelementptr inbounds nuw i8, ptr %0, i64 16
  %18 = load ptr, ptr %17, align 8, !tbaa !15
  store i32 0, ptr %3, align 4, !tbaa !21
  %19 = load i32, ptr %18, align 4, !tbaa !22
  br label %loop_get_int32.exit

loop_get_int32.exit:                              ; preds = %8, %15, %16
  %.0.i = phi i32 [ %14, %8 ], [ %19, %16 ], [ 0, %15 ]
  %20 = uitofp i32 %.0.i to double
  %21 = tail call double @ldexp(double noundef %20, i32 noundef -16) #10, !tbaa !22
  ret double %21
}